; ModuleID = '51/495.c'
source_filename = "51/495.c"
target datalayout = "e-m:e-p270:32:32-p271:32:32-p272:64:64-i64:64-f80:128-n8:16:32:64-S128"
target triple = "x86_64-pc-linux-gnu"

@.str = private unnamed_addr constant [4 x i8] c"%d\0A\00", align 1
@.str.1 = private unnamed_addr constant [3 x i8] c"%s\00", align 1
@.str.2 = private unnamed_addr constant [3 x i8] c"NO\00", align 1
@.str.3 = private unnamed_addr constant [4 x i8] c"%s\0A\00", align 1

; Function Attrs: noinline nounwind uwtable
define dso_local i32 @main() #0 {
  %1 = alloca i32, align 4
  %2 = alloca [600 x i8], align 16
  %3 = alloca [600 x [10 x i8]], align 16
  %4 = alloca i32, align 4
  %5 = alloca i32, align 4
  %6 = alloca i32, align 4
  %7 = alloca [600 x i32], align 16
  %8 = alloca i32, align 4
  %9 = alloca i32, align 4
  %10 = alloca i32, align 4
  %11 = alloca i32, align 4
  %12 = alloca i32, align 4
  %13 = alloca i32, align 4
  store i32 0, i32* %1, align 4
  %14 = bitcast [600 x i8]* %2 to i8*
  call void @llvm.memset.p0i8.i64(i8* align 16 %14, i8 0, i64 600, i1 false)
  %15 = bitcast [600 x [10 x i8]]* %3 to i8*
  call void @llvm.memset.p0i8.i64(i8* align 16 %15, i8 0, i64 6000, i1 false)
  %16 = call i32 (i8*, ...) @__isoc99_scanf(i8* getelementptr inbounds ([4 x i8], [4 x i8]* @.str, i64 0, i64 0), i32* %4)
  %17 = getelementptr inbounds [600 x i8], [600 x i8]* %2, i64 0, i64 0
  %18 = call i32 (i8*, ...) @__isoc99_scanf(i8* getelementptr inbounds ([3 x i8], [3 x i8]* @.str.1, i64 0, i64 0), i8* %17)
  %19 = bitcast [600 x i32]* %7 to i8*
  call void @llvm.memset.p0i8.i64(i8* align 16 %19, i8 0, i64 2400, i1 false)
  store i32 0, i32* %12, align 4
  %20 = getelementptr inbounds [600 x i8], [600 x i8]* %2, i64 0, i64 0
  %21 = call i64 @strlen(i8* %20) #4
  %22 = trunc i64 %21 to i32
  store i32 %22, i32* %8, align 4
  store i32 0, i32* %9, align 4
  store i32 0, i32* %5, align 4
  br label %23

23:                                               ; preds = %53, %0
  %24 = load i32, i32* %5, align 4
  %25 = load i32, i32* %8, align 4
  %26 = load i32, i32* %4, align 4
  %27 = sub nsw i32 %25, %26
  %28 = icmp sle i32 %24, %27
  br i1 %28, label %29, label %56

29:                                               ; preds = %23
  store i32 0, i32* %6, align 4
  br label %30

30:                                               ; preds = %47, %29
  %31 = load i32, i32* %6, align 4
  %32 = load i32, i32* %4, align 4
  %33 = icmp slt i32 %31, %32
  br i1 %33, label %34, label %50

34:                                               ; preds = %30
  %35 = load i32, i32* %5, align 4
  %36 = load i32, i32* %6, align 4
  %37 = add nsw i32 %35, %36
  %38 = sext i32 %37 to i64
  %39 = getelementptr inbounds [600 x i8], [600 x i8]* %2, i64 0, i64 %38
  %40 = load i8, i8* %39, align 1
  %41 = load i32, i32* %9, align 4
  %42 = sext i32 %41 to i64
  %43 = getelementptr inbounds [600 x [10 x i8]], [600 x [10 x i8]]* %3, i64 0, i64 %42
  %44 = load i32, i32* %6, align 4
  %45 = sext i32 %44 to i64
  %46 = getelementptr inbounds [10 x i8], [10 x i8]* %43, i64 0, i64 %45
  store i8 %40, i8* %46, align 1
  br label %47

47:                                               ; preds = %34
  %48 = load i32, i32* %6, align 4
  %49 = add nsw i32 %48, 1
  store i32 %49, i32* %6, align 4
  br label %30

50:                                               ; preds = %30
  %51 = load i32, i32* %9, align 4
  %52 = add nsw i32 %51, 1
  store i32 %52, i32* %9, align 4
  br label %53

53:                                               ; preds = %50
  %54 = load i32, i32* %5, align 4
  %55 = add nsw i32 %54, 1
  store i32 %55, i32* %5, align 4
  br label %23

56:                                               ; preds = %23
  store i32 0, i32* %5, align 4
  br label %57

57:                                               ; preds = %101, %56
  %58 = load i32, i32* %5, align 4
  %59 = load i32, i32* %9, align 4
  %60 = icmp slt i32 %58, %59
  br i1 %60, label %61, label %104

61:                                               ; preds = %57
  store i32 0, i32* %6, align 4
  br label %62

62:                                               ; preds = %85, %61
  %63 = load i32, i32* %6, align 4
  %64 = load i32, i32* %9, align 4
  %65 = icmp slt i32 %63, %64
  br i1 %65, label %66, label %88

66:                                               ; preds = %62
  %67 = load i32, i32* %5, align 4
  %68 = sext i32 %67 to i64
  %69 = getelementptr inbounds [600 x [10 x i8]], [600 x [10 x i8]]* %3, i64 0, i64 %68
  %70 = getelementptr inbounds [10 x i8], [10 x i8]* %69, i64 0, i64 0
  %71 = load i32, i32* %6, align 4
  %72 = sext i32 %71 to i64
  %73 = getelementptr inbounds [600 x [10 x i8]], [600 x [10 x i8]]* %3, i64 0, i64 %72
  %74 = getelementptr inbounds [10 x i8], [10 x i8]* %73, i64 0, i64 0
  %75 = call i32 @strcmp(i8* %70, i8* %74) #4
  store i32 %75, i32* %10, align 4
  %76 = load i32, i32* %10, align 4
  %77 = icmp eq i32 %76, 0
  br i1 %77, label %78, label %84

78:                                               ; preds = %66
  %79 = load i32, i32* %5, align 4
  %80 = sext i32 %79 to i64
  %81 = getelementptr inbounds [600 x i32], [600 x i32]* %7, i64 0, i64 %80
  %82 = load i32, i32* %81, align 4
  %83 = add nsw i32 %82, 1
  store i32 %83, i32* %81, align 4
  br label %84

84:                                               ; preds = %78, %66
  br label %85

85:                                               ; preds = %84
  %86 = load i32, i32* %6, align 4
  %87 = add nsw i32 %86, 1
  store i32 %87, i32* %6, align 4
  br label %62

88:                                               ; preds = %62
  %89 = load i32, i32* %5, align 4
  %90 = sext i32 %89 to i64
  %91 = getelementptr inbounds [600 x i32], [600 x i32]* %7, i64 0, i64 %90
  %92 = load i32, i32* %91, align 4
  %93 = load i32, i32* %12, align 4
  %94 = icmp sgt i32 %92, %93
  br i1 %94, label %95, label %100

95:                                               ; preds = %88
  %96 = load i32, i32* %5, align 4
  %97 = sext i32 %96 to i64
  %98 = getelementptr inbounds [600 x i32], [600 x i32]* %7, i64 0, i64 %97
  %99 = load i32, i32* %98, align 4
  store i32 %99, i32* %12, align 4
  br label %100

100:                                              ; preds = %95, %88
  br label %101

101:                                              ; preds = %100
  %102 = load i32, i32* %5, align 4
  %103 = add nsw i32 %102, 1
  store i32 %103, i32* %5, align 4
  br label %57

104:                                              ; preds = %57
  store i32 0, i32* %5, align 4
  br label %105

105:                                              ; preds = %149, %104
  %106 = load i32, i32* %5, align 4
  %107 = load i32, i32* %9, align 4
  %108 = icmp slt i32 %106, %107
  br i1 %108, label %109, label %152

109:                                              ; preds = %105
  %110 = load i32, i32* %5, align 4
  %111 = add nsw i32 %110, 1
  store i32 %111, i32* %6, align 4
  br label %112

112:                                              ; preds = %145, %109
  %113 = load i32, i32* %6, align 4
  %114 = load i32, i32* %9, align 4
  %115 = icmp slt i32 %113, %114
  br i1 %115, label %116, label %148

116:                                              ; preds = %112
  %117 = load i32, i32* %5, align 4
  %118 = sext i32 %117 to i64
  %119 = getelementptr inbounds [600 x [10 x i8]], [600 x [10 x i8]]* %3, i64 0, i64 %118
  %120 = getelementptr inbounds [10 x i8], [10 x i8]* %119, i64 0, i64 0
  %121 = load i32, i32* %6, align 4
  %122 = sext i32 %121 to i64
  %123 = getelementptr inbounds [600 x [10 x i8]], [600 x [10 x i8]]* %3, i64 0, i64 %122
  %124 = getelementptr inbounds [10 x i8], [10 x i8]* %123, i64 0, i64 0
  %125 = call i32 @strcmp(i8* %120, i8* %124) #4
  store i32 %125, i32* %10, align 4
  %126 = load i32, i32* %10, align 4
  %127 = icmp eq i32 %126, 0
  br i1 %127, label %128, label %144

128:                                              ; preds = %116
  store i32 0, i32* %11, align 4
  br label %129

129:                                              ; preds = %140, %128
  %130 = load i32, i32* %11, align 4
  %131 = load i32, i32* %4, align 4
  %132 = icmp slt i32 %130, %131
  br i1 %132, label %133, label %143

133:                                              ; preds = %129
  %134 = load i32, i32* %6, align 4
  %135 = sext i32 %134 to i64
  %136 = getelementptr inbounds [600 x [10 x i8]], [600 x [10 x i8]]* %3, i64 0, i64 %135
  %137 = load i32, i32* %11, align 4
  %138 = sext i32 %137 to i64
  %139 = getelementptr inbounds [10 x i8], [10 x i8]* %136, i64 0, i64 %138
  store i8 0, i8* %139, align 1
  br label %140

140:                                              ; preds = %133
  %141 = load i32, i32* %11, align 4
  %142 = add nsw i32 %141, 1
  store i32 %142, i32* %11, align 4
  br label %129

143:                                              ; preds = %129
  br label %144

144:                                              ; preds = %143, %116
  br label %145

145:                                              ; preds = %144
  %146 = load i32, i32* %6, align 4
  %147 = add nsw i32 %146, 1
  store i32 %147, i32* %6, align 4
  br label %112

148:                                              ; preds = %112
  br label %149

149:                                              ; preds = %148
  %150 = load i32, i32* %5, align 4
  %151 = add nsw i32 %150, 1
  store i32 %151, i32* %5, align 4
  br label %105

152:                                              ; preds = %105
  %153 = load i32, i32* %12, align 4
  %154 = icmp eq i32 %153, 1
  br i1 %154, label %155, label %157

155:                                              ; preds = %152
  %156 = call i32 (i8*, ...) @printf(i8* getelementptr inbounds ([3 x i8], [3 x i8]* @.str.2, i64 0, i64 0))
  br label %196

157:                                              ; preds = %152
  %158 = load i32, i32* %12, align 4
  %159 = call i32 (i8*, ...) @printf(i8* getelementptr inbounds ([4 x i8], [4 x i8]* @.str, i64 0, i64 0), i32 %158)
  store i32 0, i32* %5, align 4
  br label %160

160:                                              ; preds = %192, %157
  %161 = load i32, i32* %5, align 4
  %162 = load i32, i32* %9, align 4
  %163 = icmp slt i32 %161, %162
  br i1 %163, label %164, label %195

164:                                              ; preds = %160
  %165 = load i32, i32* %5, align 4
  %166 = sext i32 %165 to i64
  %167 = getelementptr inbounds [600 x [10 x i8]], [600 x [10 x i8]]* %3, i64 0, i64 %166
  %168 = getelementptr inbounds [10 x i8], [10 x i8]* %167, i64 0, i64 0
  %169 = call i64 @strlen(i8* %168) #4
  %170 = trunc i64 %169 to i32
  store i32 %170, i32* %13, align 4
  %171 = load i32, i32* %5, align 4
  %172 = sext i32 %171 to i64
  %173 = getelementptr inbounds [600 x i32], [600 x i32]* %7, i64 0, i64 %172
  %174 = load i32, i32* %173, align 4
  %175 = load i32, i32* %12, align 4
  %176 = icmp eq i32 %174, %175
  br i1 %176, label %177, label %191

177:                                              ; preds = %164
  %178 = load i32, i32* %5, align 4
  %179 = sext i32 %178 to i64
  %180 = getelementptr inbounds [600 x [10 x i8]], [600 x [10 x i8]]* %3, i64 0, i64 %179
  %181 = getelementptr inbounds [10 x i8], [10 x i8]* %180, i64 0, i64 0
  %182 = load i8, i8* %181, align 2
  %183 = sext i8 %182 to i32
  %184 = icmp ne i32 %183, 0
  br i1 %184, label %185, label %191

185:                                              ; preds = %177
  %186 = load i32, i32* %5, align 4
  %187 = sext i32 %186 to i64
  %188 = getelementptr inbounds [600 x [10 x i8]], [600 x [10 x i8]]* %3, i64 0, i64 %187
  %189 = getelementptr inbounds [10 x i8], [10 x i8]* %188, i64 0, i64 0
  %190 = call i32 (i8*, ...) @printf(i8* getelementptr inbounds ([4 x i8], [4 x i8]* @.str.3, i64 0, i64 0), i8* %189)
  br label %191

191:                                              ; preds = %185, %177, %164
  br label %192

192:                                              ; preds = %191
  %193 = load i32, i32* %5, align 4
  %194 = add nsw i32 %193, 1
  store i32 %194, i32* %5, align 4
  br label %160

195:                                              ; preds = %160
  br label %196

196:                                              ; preds = %195, %155
  ret i32 0
}

; Function Attrs: argmemonly nounwind willreturn
declare void @llvm.memset.p0i8.i64(i8* nocapture writeonly, i8, i64, i1 immarg) #1

declare dso_local i32 @__isoc99_scanf(i8*, ...) #2

; Function Attrs: nounwind readonly
declare dso_local i64 @strlen(i8*) #3

; Function Attrs: nounwind readonly
declare dso_local i32 @strcmp(i8*, i8*) #3

declare dso_local i32 @printf(i8*, ...) #2


!llvm.module.flags = !{!0}
!llvm.ident = !{!1}

!0 = !{i32 1, !"wchar_size", i32 4}
!1 = !{!"clang version 10.0.0-4ubuntu1 "}
